; ModuleID = '16/803.c'
source_filename = "16/803.c"
target datalayout = "e-m:e-p270:32:32-p271:32:32-p272:64:64-i64:64-f80:128-n8:16:32:64-S128"
target triple = "x86_64-pc-linux-gnu"

@.str = private unnamed_addr constant [3 x i8] c"%d\00", align 1
@.str.1 = private unnamed_addr constant [7 x i8] c"%d%d%d\00", align 1
@.str.2 = private unnamed_addr constant [9 x i8] c"%d%d%d%d\00", align 1

; Function Attrs: noinline nounwind uwtable
define dso_local i32 @main() #0 {
  %1 = alloca i32, align 4
  %2 = alloca i32, align 4
  %3 = alloca i32, align 4
  %4 = alloca i32, align 4
  %5 = alloca i32, align 4
  %6 = alloca i32, align 4
  store i32 0, i32* %1, align 4
  %7 = call i32 (i8*, ...) @__isoc99_scanf(i8* getelementptr inbounds ([3 x i8], [3 x i8]* @.str, i64 0, i64 0), i32* %2)
  %8 = load i32, i32* %2, align 4
  %9 = sdiv i32 %8, 1000
  store i32 %9, i32* %3, align 4
  %10 = load i32, i32* %2, align 4
  %11 = load i32, i32* %3, align 4
  %12 = mul nsw i32 1000, %11
  %13 = sub nsw i32 %10, %12
  %14 = sdiv i32 %13, 100
  store i32 %14, i32* %4, align 4
  %15 = load i32, i32* %2, align 4
  %16 = load i32, i32* %3, align 4
  %17 = mul nsw i32 1000, %16
  %18 = sub nsw i32 %15, %17
  %19 = load i32, i32* %4, align 4
  %20 = mul nsw i32 100, %19
  %21 = sub nsw i32 %18, %20
  %22 = sdiv i32 %21, 10
  store i32 %22, i32* %5, align 4
  %23 = load i32, i32* %2, align 4
  %24 = load i32, i32* %3, align 4
  %25 = mul nsw i32 1000, %24
  %26 = sub nsw i32 %23, %25
  %27 = load i32, i32* %4, align 4
  %28 = mul nsw i32 100, %27
  %29 = sub nsw i32 %26, %28
  %30 = load i32, i32* %5, align 4
  %31 = mul nsw i32 10, %30
  %32 = sub nsw i32 %29, %31
  store i32 %32, i32* %6, align 4
  %33 = load i32, i32* %3, align 4
  %34 = icmp eq i32 %33, 0
  %35 = zext i1 %34 to i32
  %36 = load i32, i32* %4, align 4
  %37 = icmp eq i32 %36, 0
  %38 = zext i1 %37 to i32
  %39 = and i32 %35, %38
  %40 = load i32, i32* %5, align 4
  %41 = icmp eq i32 %40, 0
  %42 = zext i1 %41 to i32
  %43 = and i32 %39, %42
  %44 = icmp ne i32 %43, 0
  br i1 %44, label %45, label %48

45:                                               ; preds = %0
  %46 = load i32, i32* %6, align 4
  %47 = call i32 (i8*, ...) @printf(i8* getelementptr inbounds ([3 x i8], [3 x i8]* @.str, i64 0, i64 0), i32 %46)
  br label %48

48:                                               ; preds = %45, %0
  %49 = load i32, i32* %3, align 4
  %50 = icmp eq i32 %49, 0
  %51 = zext i1 %50 to i32
  %52 = load i32, i32* %4, align 4
  %53 = icmp ne i32 %52, 0
  %54 = zext i1 %53 to i32
  %55 = and i32 %51, %54
  %56 = icmp ne i32 %55, 0
  br i1 %56, label %57, label %62

57:                                               ; preds = %48
  %58 = load i32, i32* %6, align 4
  %59 = load i32, i32* %5, align 4
  %60 = load i32, i32* %4, align 4
  %61 = call i32 (i8*, ...) @printf(i8* getelementptr inbounds ([7 x i8], [7 x i8]* @.str.1, i64 0, i64 0), i32 %58, i32 %59, i32 %60)
  br label %62

62:                                               ; preds = %57, %48
  %63 = load i32, i32* %3, align 4
  %64 = icmp ne i32 %63, 0
  %65 = zext i1 %64 to i32
  %66 = load i32, i32* %4, align 4
  %67 = icmp ne i32 %66, 0
  %68 = zext i1 %67 to i32
  %69 = and i32 %65, %68
  %70 = load i32, i32* %5, align 4
  %71 = icmp ne i32 %70, 0
  %72 = zext i1 %71 to i32
  %73 = and i32 %69, %72
  %74 = icmp ne i32 %73, 0
  br i1 %74, label %75, label %81

75:                                               ; preds = %62
  %76 = load i32, i32* %6, align 4
  %77 = load i32, i32* %5, align 4
  %78 = load i32, i32* %4, align 4
  %79 = load i32, i32* %3, align 4
  %80 = call i32 (i8*, ...) @printf(i8* getelementptr inbounds ([9 x i8], [9 x i8]* @.str.2, i64 0, i64 0), i32 %76, i32 %77, i32 %78, i32 %79)
  br label %81

81:                                               ; preds = %75, %62
  ret i32 0
}

declare dso_local i32 @__isoc99_scanf(i8*, ...) #1

declare dso_local i32 @printf(i8*, ...) #1


!llvm.module.flags = !{!0}
!llvm.ident = !{!1}

!0 = !{i32 1, !"wchar_size", i32 4}
!1 = !{!"clang version 10.0.0-4ubuntu1 "}
